; Function Attrs: mustprogress nofree norecurse nosync nounwind willreturn memory(argmem: write) uwtable
define dso_local void @_ZN30btGeneric6DofSpring2Constraint10setDampingEifb(ptr nocapture noundef nonnull writeonly align 8 dereferenceable(1484) %this, i32 noundef %index, float noundef %damping, i1 noundef zeroext %limitIfNeeded) local_unnamed_addr #14 align 2 {
entry:
  %frombool = zext i1 %limitIfNeeded to i8
  %cmp = icmp slt i32 %index, 3
  br i1 %cmp, label %if.then, label %if.else

if.then:                                          ; preds = %entry
  %m_springDamping = getelementptr inbounds i8, ptr %this, i64 864
  %idxprom = sext i32 %index to i64
  %arrayidx = getelementptr inbounds float, ptr %m_springDamping, i64 %idxprom
  store float %damping, ptr %arrayidx, align 4
  %m_springDampingLimited = getelementptr inbounds i8, ptr %this, i64 880
  %arrayidx4 = getelementptr inbounds [3 x i8], ptr %m_springDampingLimited, i64 0, i64 %idxprom
  store i8 %frombool, ptr %arrayidx4, align 1
  br label %if.end

if.else:                                          ; preds = %entry
  %m_angularLimits = getelementptr inbounds i8, ptr %this, i64 992
  %sub = add nsw i32 %index, -3
  %idxprom6 = zext nneg i32 %sub to i64
  %arrayidx7 = getelementptr inbounds [3 x %class.btRotationalLimitMotor2], ptr %m_angularLimits, i64 0, i64 %idxprom6
  %m_springDamping8 = getelementptr inbounds i8, ptr %arrayidx7, i64 60
  store float %damping, ptr %m_springDamping8, align 4
  %m_springDampingLimited14 = getelementptr inbounds i8, ptr %arrayidx7, i64 64
  store i8 %frombool, ptr %m_springDampingLimited14, align 8
  br label %if.end

if.end:                                           ; preds = %if.else, %if.then
  ret void
}